; Function Attrs: nofree nosync nounwind memory(readwrite, inaccessiblemem: none) uwtable
define void @Ivy_NodeComputeVolumeTrav1_rec(ptr noundef captures(none) %0, i32 noundef %1) local_unnamed_addr #4 {
  %3 = getelementptr i8, ptr %0, i64 8
  %4 = icmp eq i32 %1, 0
  br i1 %4, label %common.ret9, label %switch.early.test

switch.early.test:                                ; preds = %2
  %.val = load i32, ptr %3, align 8
  %5 = and i32 %.val, 15
  switch i32 %5, label %6 [
    i32 4, label %common.ret9
    i32 1, label %common.ret9
  ]

common.ret9:                                      ; preds = %switch.early.test, %switch.early.test, %2, %6
  ret void

6:                                                ; preds = %switch.early.test
  %7 = getelementptr i8, ptr %0, i64 16
  %.val7 = load ptr, ptr %7, align 8, !tbaa !11
  %8 = ptrtoint ptr %.val7 to i64
  %9 = and i64 %8, -2
  %10 = inttoptr i64 %9 to ptr
  %11 = add nsw i32 %1, -1
  tail call void @Ivy_NodeComputeVolumeTrav1_rec(ptr noundef %10, i32 noundef %11)
  %12 = getelementptr i8, ptr %0, i64 24
  %.val8 = load ptr, ptr %12, align 8, !tbaa !15
  %13 = ptrtoint ptr %.val8 to i64
  %14 = and i64 %13, -2
  %15 = inttoptr i64 %14 to ptr
  tail call void @Ivy_NodeComputeVolumeTrav1_rec(ptr noundef %15, i32 noundef %11)
  %16 = load i32, ptr %3, align 8
  %17 = or i32 %16, 16
  store i32 %17, ptr %3, align 8
  br label %common.ret9
}